target datalayout = "e-m:e-p270:32:32-p271:32:32-p272:64:64-i64:64-i128:128-f80:128-n8:16:32:64-S128"
target triple = "x86_64-pc-linux-gnu"

%struct.AVFilterContext = type { ptr, ptr, ptr, ptr, ptr, i32, ptr, ptr, i32, ptr, ptr, i32, i32, ptr, ptr, ptr, ptr, i32, ptr, i32, i32 }
%struct.HeadphoneContext = type { ptr, ptr, i32, i32, i32, i32, i32, i32, i32, i32, float, float, float, [2 x ptr], [2 x i32], i32, i32, i32, i32, [2 x ptr], [2 x ptr], [2 x ptr], [2 x ptr], [2 x ptr], [2 x ptr], [2 x ptr], [2 x ptr], [2 x ptr], [2 x ptr], ptr, [64 x %struct.hrir_inputs], %struct.AVChannelLayout, [64 x i32], [64 x i8] }
%struct.hrir_inputs = type { i32, i32 }
%struct.AVChannelLayout = type { i32, i32, %union.anon.1, ptr }
%union.anon.1 = type { i64 }
%struct.AVFilterFormatsConfig = type { ptr, ptr, ptr, ptr, ptr }
%struct.AVFilterLink = type { ptr, ptr, ptr, ptr, i32, i32, i32, i32, %struct.AVRational, i32, i32, i32, %struct.AVChannelLayout, %struct.AVRational, ptr, i32, %struct.AVFilterFormatsConfig, %struct.AVFilterFormatsConfig }
%struct.AVRational = type { i32, i32 }

@.str.29 = private unnamed_addr constant [32 x i8] c"Number of HRIRs must be >= %d.\0A\00", align 1

; Function Attrs: nounwind uwtable
define internal i32 @config_input(ptr noundef %0) #1 {
  %2 = alloca i32, align 4
  %3 = alloca ptr, align 8
  %4 = alloca ptr, align 8
  %5 = alloca ptr, align 8
  %6 = alloca i32, align 4
  store ptr %0, ptr %3, align 8, !tbaa !55
  call void @llvm.lifetime.start.p0(i64 8, ptr %4) #9
  %7 = load ptr, ptr %3, align 8, !tbaa !55
  %8 = getelementptr inbounds nuw %struct.AVFilterLink, ptr %7, i32 0, i32 2
  %9 = load ptr, ptr %8, align 8, !tbaa !80
  store ptr %9, ptr %4, align 8, !tbaa !4
  call void @llvm.lifetime.start.p0(i64 8, ptr %5) #9
  %10 = load ptr, ptr %4, align 8, !tbaa !4
  %11 = getelementptr inbounds nuw %struct.AVFilterContext, ptr %10, i32 0, i32 9
  %12 = load ptr, ptr %11, align 8, !tbaa !9
  store ptr %12, ptr %5, align 8, !tbaa !22
  %13 = load ptr, ptr %5, align 8, !tbaa !22
  %14 = getelementptr inbounds nuw %struct.HeadphoneContext, ptr %13, i32 0, i32 9
  %15 = load i32, ptr %14, align 4, !tbaa !81
  %16 = load ptr, ptr %3, align 8, !tbaa !55
  %17 = getelementptr inbounds nuw %struct.AVFilterLink, ptr %16, i32 0, i32 12
  %18 = getelementptr inbounds nuw %struct.AVChannelLayout, ptr %17, i32 0, i32 1
  %19 = load i32, ptr %18, align 4, !tbaa !76
  %20 = icmp slt i32 %15, %19
  br i1 %20, label %21, label %27

21:                                               ; preds = %1
  %22 = load ptr, ptr %4, align 8, !tbaa !4
  %23 = load ptr, ptr %3, align 8, !tbaa !55
  %24 = getelementptr inbounds nuw %struct.AVFilterLink, ptr %23, i32 0, i32 12
  %25 = getelementptr inbounds nuw %struct.AVChannelLayout, ptr %24, i32 0, i32 1
  %26 = load i32, ptr %25, align 4, !tbaa !76
  call void (ptr, i32, ptr, ...) @av_log(ptr noundef %22, i32 noundef 16, ptr noundef @.str.29, i32 noundef %26)
  store i32 -22, ptr %2, align 4
  store i32 1, ptr %6, align 4
  br label %33

27:                                               ; preds = %1
  %28 = load ptr, ptr %3, align 8, !tbaa !55
  %29 = getelementptr inbounds nuw %struct.AVFilterLink, ptr %28, i32 0, i32 12
  %30 = call i32 @av_channel_layout_index_from_channel(ptr noundef %29, i32 noundef 3)
  %31 = load ptr, ptr %5, align 8, !tbaa !22
  %32 = getelementptr inbounds nuw %struct.HeadphoneContext, ptr %31, i32 0, i32 3
  store i32 %30, ptr %32, align 4, !tbaa !82
  store i32 0, ptr %2, align 4
  store i32 1, ptr %6, align 4
  br label %33

33:                                               ; preds = %27, %21
  call void @llvm.lifetime.end.p0(i64 8, ptr %5) #9
  call void @llvm.lifetime.end.p0(i64 8, ptr %4) #9
  %34 = load i32, ptr %2, align 4
  ret i32 %34
}