; Function Attrs: nounwind uwtable
define internal range(i32 -22, 1) i32 @config_input(ptr noundef %0) #1 {
  %2 = getelementptr inbounds nuw i8, ptr %0, i64 16
  %3 = load ptr, ptr %2, align 8, !tbaa !58
  %4 = getelementptr inbounds nuw i8, ptr %3, i64 72
  %5 = load ptr, ptr %4, align 8, !tbaa !4
  %6 = getelementptr inbounds nuw i8, ptr %5, i64 44
  %7 = load i32, ptr %6, align 4, !tbaa !26
  %8 = getelementptr inbounds nuw i8, ptr %0, i64 76
  %9 = load i32, ptr %8, align 4, !tbaa !68
  %10 = icmp slt i32 %7, %9
  br i1 %10, label %11, label %12

11:                                               ; preds = %1
  tail call void (ptr, i32, ptr, ...) @av_log(ptr noundef nonnull %3, i32 noundef 16, ptr noundef nonnull @.str.29, i32 noundef %9) #8
  br label %16

12:                                               ; preds = %1
  %13 = getelementptr inbounds nuw i8, ptr %0, i64 72
  %14 = tail call i32 @av_channel_layout_index_from_channel(ptr noundef nonnull %13, i32 noundef 3) #8
  %15 = getelementptr inbounds nuw i8, ptr %5, i64 20
  store i32 %14, ptr %15, align 4, !tbaa !118
  br label %16

16:                                               ; preds = %12, %11
  %.0 = phi i32 [ -22, %11 ], [ 0, %12 ]
  ret i32 %.0
}